; Function Attrs: mustprogress uwtable
define void @rocksdb_transaction_set_commit_timestamp(ptr noundef readonly captures(none) %0, i64 noundef %1) local_unnamed_addr #0 personality ptr @__gxx_personality_v0 {
  %3 = alloca %"class.rocksdb::Status", align 8
  %4 = load ptr, ptr %0, align 8, !tbaa !1216
  %5 = load ptr, ptr %4, align 8, !tbaa !23
  %6 = getelementptr inbounds nuw i8, ptr %5, i64 704
  %7 = load ptr, ptr %6, align 8
  call void %7(ptr dead_on_unwind nonnull writable sret(%"class.rocksdb::Status") align 8 %3, ptr noundef nonnull align 8 dereferenceable(64) %4, i64 noundef %1)
  %8 = getelementptr inbounds nuw i8, ptr %3, i64 8
  %9 = load ptr, ptr %8, align 8, !tbaa !25
  %.not.i.i = icmp eq ptr %9, null
  br i1 %.not.i.i, label %_ZN7rocksdb6StatusD2Ev.exit, label %_ZNKSt14default_deleteIA_KcEclIS0_EENSt9enable_ifIXsr14is_convertibleIPA_T_PS1_EE5valueEvE4typeEPS5_.exit.i.i

_ZNKSt14default_deleteIA_KcEclIS0_EENSt9enable_ifIXsr14is_convertibleIPA_T_PS1_EE5valueEvE4typeEPS5_.exit.i.i: ; preds = %2
  call void @_ZdaPv(ptr noundef nonnull %9) #45
  br label %_ZN7rocksdb6StatusD2Ev.exit

_ZN7rocksdb6StatusD2Ev.exit:                      ; preds = %2, %_ZNKSt14default_deleteIA_KcEclIS0_EENSt9enable_ifIXsr14is_convertibleIPA_T_PS1_EE5valueEvE4typeEPS5_.exit.i.i
  ret void
}